target datalayout = "e-m:e-p270:32:32-p271:32:32-p272:64:64-i64:64-i128:128-f80:128-n8:16:32:64-S128"
target triple = "x86_64-unknown-linux-gnu"

@qemu_host_page_size = external global i64, align 8
@guest_base = external global i64, align 8

; Function Attrs: nounwind sspstrong uwtable
define internal i32 @target_to_host_prot(i32 noundef %prot) #0 {
entry:
  %prot.addr = alloca i32, align 4
  store i32 %prot, ptr %prot.addr, align 4
  %0 = load i32, ptr %prot.addr, align 4
  %and = and i32 %0, 3
  %1 = load i32, ptr %prot.addr, align 4
  %and1 = and i32 %1, 4
  %tobool = icmp ne i32 %and1, 0
  %cond = select i1 %tobool, i32 1, i32 0
  %or = or i32 %and, %cond
  ret i32 %or
}

; Function Attrs: nounwind sspstrong uwtable
define internal ptr @g2h_untagged(i64 noundef %x) #0 {
entry:
  %x.addr = alloca i64, align 8
  store i64 %x, ptr %x.addr, align 8
  %0 = load i64, ptr %x.addr, align 8
  %1 = load i64, ptr @guest_base, align 8
  %add = add i64 %0, %1
  %2 = inttoptr i64 %add to ptr
  ret ptr %2
}

; Function Attrs: nounwind sspstrong uwtable
define internal zeroext i1 @mmap_frag(i64 noundef %real_start, i64 noundef %start, i64 noundef %last, i32 noundef %prot, i32 noundef %flags, i32 noundef %fd, i64 noundef %offset) #0 {
entry:
  %retval = alloca i1, align 1
  %real_start.addr = alloca i64, align 8
  %start.addr = alloca i64, align 8
  %last.addr = alloca i64, align 8
  %prot.addr = alloca i32, align 4
  %flags.addr = alloca i32, align 4
  %fd.addr = alloca i32, align 4
  %offset.addr = alloca i64, align 8
  %real_last = alloca i64, align 8
  %host_start = alloca ptr, align 8
  %prot_old = alloca i32, align 4
  %prot_new = alloca i32, align 4
  %host_prot_old = alloca i32, align 4
  %host_prot_new = alloca i32, align 4
  %a = alloca i64, align 8
  %a9 = alloca i64, align 8
  %p = alloca ptr, align 8
  store i64 %real_start, ptr %real_start.addr, align 8
  store i64 %start, ptr %start.addr, align 8
  store i64 %last, ptr %last.addr, align 8
  store i32 %prot, ptr %prot.addr, align 4
  store i32 %flags, ptr %flags.addr, align 4
  store i32 %fd, ptr %fd.addr, align 4
  store i64 %offset, ptr %offset.addr, align 8
  %0 = load i32, ptr %flags.addr, align 4
  %and = and i32 %0, 32
  %tobool = icmp ne i32 %and, 0
  br i1 %tobool, label %if.end, label %land.lhs.true

land.lhs.true:                                    ; preds = %entry
  %1 = load i32, ptr %flags.addr, align 4
  %and1 = and i32 %1, 15
  %cmp = icmp eq i32 %and1, 1
  br i1 %cmp, label %land.lhs.true2, label %if.end

land.lhs.true2:                                   ; preds = %land.lhs.true
  %2 = load i32, ptr %prot.addr, align 4
  %and3 = and i32 %2, 2
  %tobool4 = icmp ne i32 %and3, 0
  br i1 %tobool4, label %if.then, label %if.end

if.then:                                          ; preds = %land.lhs.true2
  %call = call ptr @__errno_location() #10
  store i32 22, ptr %call, align 4
  store i1 false, ptr %retval, align 1
  br label %return

if.end:                                           ; preds = %land.lhs.true2, %land.lhs.true, %entry
  %3 = load i64, ptr %real_start.addr, align 8
  %4 = load i64, ptr @qemu_host_page_size, align 8
  %add = add i64 %3, %4
  %sub = sub i64 %add, 1
  store i64 %sub, ptr %real_last, align 8
  %5 = load i64, ptr %real_start.addr, align 8
  %call5 = call ptr @g2h_untagged(i64 noundef %5)
  store ptr %call5, ptr %host_start, align 8
  store i32 0, ptr %prot_old, align 4
  %6 = load i64, ptr %real_start.addr, align 8
  store i64 %6, ptr %a, align 8
  br label %for.cond

for.cond:                                         ; preds = %for.inc, %if.end
  %7 = load i64, ptr %a, align 8
  %8 = load i64, ptr %start.addr, align 8
  %cmp6 = icmp ult i64 %7, %8
  br i1 %cmp6, label %for.body, label %for.end

for.body:                                         ; preds = %for.cond
  %9 = load i64, ptr %a, align 8
  %call7 = call i32 @page_get_flags(i64 noundef %9)
  %10 = load i32, ptr %prot_old, align 4
  %or = or i32 %10, %call7
  store i32 %or, ptr %prot_old, align 4
  br label %for.inc

for.inc:                                          ; preds = %for.body
  %11 = load i64, ptr %a, align 8
  %add8 = add i64 %11, 4096
  store i64 %add8, ptr %a, align 8
  br label %for.cond, !llvm.loop !11

for.end:                                          ; preds = %for.cond
  %12 = load i64, ptr %real_last, align 8
  store i64 %12, ptr %a9, align 8
  br label %for.cond10

for.cond10:                                       ; preds = %for.inc15, %for.end
  %13 = load i64, ptr %a9, align 8
  %14 = load i64, ptr %last.addr, align 8
  %cmp11 = icmp ugt i64 %13, %14
  br i1 %cmp11, label %for.body12, label %for.end17

for.body12:                                       ; preds = %for.cond10
  %15 = load i64, ptr %a9, align 8
  %call13 = call i32 @page_get_flags(i64 noundef %15)
  %16 = load i32, ptr %prot_old, align 4
  %or14 = or i32 %16, %call13
  store i32 %or14, ptr %prot_old, align 4
  br label %for.inc15

for.inc15:                                        ; preds = %for.body12
  %17 = load i64, ptr %a9, align 8
  %sub16 = sub i64 %17, 4096
  store i64 %sub16, ptr %a9, align 8
  br label %for.cond10, !llvm.loop !12

for.end17:                                        ; preds = %for.cond10
  %18 = load i32, ptr %prot_old, align 4
  %cmp18 = icmp eq i32 %18, 0
  br i1 %cmp18, label %if.then19, label %if.end31

if.then19:                                        ; preds = %for.end17
  %19 = load ptr, ptr %host_start, align 8
  %20 = load i64, ptr @qemu_host_page_size, align 8
  %21 = load i32, ptr %prot.addr, align 4
  %call20 = call i32 @target_to_host_prot(i32 noundef %21)
  %22 = load i32, ptr %flags.addr, align 4
  %or21 = or i32 %22, 32
  %call22 = call ptr @mmap64(ptr noundef %19, i64 noundef %20, i32 noundef %call20, i32 noundef %or21, i32 noundef -1, i64 noundef 0) #8
  store ptr %call22, ptr %p, align 8
  %23 = load ptr, ptr %p, align 8
  %24 = load ptr, ptr %host_start, align 8
  %cmp23 = icmp ne ptr %23, %24
  br i1 %cmp23, label %if.then24, label %if.end30

if.then24:                                        ; preds = %if.then19
  %25 = load ptr, ptr %p, align 8
  %26 = inttoptr i64 -1 to ptr
  %cmp25 = icmp ne ptr %25, %26
  br i1 %cmp25, label %if.then26, label %if.end29

if.then26:                                        ; preds = %if.then24
  %27 = load ptr, ptr %p, align 8
  %28 = load i64, ptr @qemu_host_page_size, align 8
  %call27 = call i32 @munmap(ptr noundef %27, i64 noundef %28) #8
  %call28 = call ptr @__errno_location() #10
  store i32 17, ptr %call28, align 4
  br label %if.end29

if.end29:                                         ; preds = %if.then26, %if.then24
  store i1 false, ptr %retval, align 1
  br label %return

if.end30:                                         ; preds = %if.then19
  %29 = load i32, ptr %prot.addr, align 4
  store i32 %29, ptr %prot_old, align 4
  br label %if.end31

if.end31:                                         ; preds = %if.end30, %for.end17
  %30 = load i32, ptr %prot.addr, align 4
  %31 = load i32, ptr %prot_old, align 4
  %or32 = or i32 %30, %31
  store i32 %or32, ptr %prot_new, align 4
  %32 = load i32, ptr %prot_old, align 4
  %call33 = call i32 @target_to_host_prot(i32 noundef %32)
  store i32 %call33, ptr %host_prot_old, align 4
  %33 = load i32, ptr %prot_new, align 4
  %call34 = call i32 @target_to_host_prot(i32 noundef %33)
  store i32 %call34, ptr %host_prot_new, align 4
  %34 = load i32, ptr %host_prot_old, align 4
  %and35 = and i32 %34, 2
  %tobool36 = icmp ne i32 %and35, 0
  br i1 %tobool36, label %if.end40, label %if.then37

if.then37:                                        ; preds = %if.end31
  %35 = load i32, ptr %host_prot_old, align 4
  %or38 = or i32 %35, 2
  store i32 %or38, ptr %host_prot_old, align 4
  %36 = load ptr, ptr %host_start, align 8
  %37 = load i64, ptr @qemu_host_page_size, align 8
  %38 = load i32, ptr %host_prot_old, align 4
  %call39 = call i32 @mprotect(ptr noundef %36, i64 noundef %37, i32 noundef %38) #8
  br label %if.end40

if.end40:                                         ; preds = %if.then37, %if.end31
  %39 = load i32, ptr %flags.addr, align 4
  %and41 = and i32 %39, 32
  %tobool42 = icmp ne i32 %and41, 0
  br i1 %tobool42, label %if.then43, label %if.else

if.then43:                                        ; preds = %if.end40
  %40 = load i64, ptr %start.addr, align 8
  %call44 = call ptr @g2h_untagged(i64 noundef %40)
  %41 = load i64, ptr %last.addr, align 8
  %42 = load i64, ptr %start.addr, align 8
  %sub45 = sub i64 %41, %42
  %add46 = add i64 %sub45, 1
  call void @llvm.memset.p0.i64(ptr align 1 %call44, i8 0, i64 %add46, i1 false)
  br label %if.end54

if.else:                                          ; preds = %if.end40
  %43 = load i32, ptr %fd.addr, align 4
  %44 = load i64, ptr %start.addr, align 8
  %call47 = call ptr @g2h_untagged(i64 noundef %44)
  %45 = load i64, ptr %last.addr, align 8
  %46 = load i64, ptr %start.addr, align 8
  %sub48 = sub i64 %45, %46
  %add49 = add i64 %sub48, 1
  %47 = load i64, ptr %offset.addr, align 8
  %call50 = call i64 @pread64(i32 noundef %43, ptr noundef %call47, i64 noundef %add49, i64 noundef %47)
  %cmp51 = icmp eq i64 %call50, -1
  br i1 %cmp51, label %if.then52, label %if.end53

if.then52:                                        ; preds = %if.else
  store i1 false, ptr %retval, align 1
  br label %return

if.end53:                                         ; preds = %if.else
  br label %if.end54

if.end54:                                         ; preds = %if.end53, %if.then43
  %48 = load i32, ptr %host_prot_new, align 4
  %49 = load i32, ptr %host_prot_old, align 4
  %cmp55 = icmp ne i32 %48, %49
  br i1 %cmp55, label %if.then56, label %if.end58

if.then56:                                        ; preds = %if.end54
  %50 = load ptr, ptr %host_start, align 8
  %51 = load i64, ptr @qemu_host_page_size, align 8
  %52 = load i32, ptr %host_prot_new, align 4
  %call57 = call i32 @mprotect(ptr noundef %50, i64 noundef %51, i32 noundef %52) #8
  br label %if.end58

if.end58:                                         ; preds = %if.then56, %if.end54
  store i1 true, ptr %retval, align 1
  br label %return

return:                                           ; preds = %if.end58, %if.then52, %if.end29, %if.then
  %53 = load i1, ptr %retval, align 1
  ret i1 %53
}