; Function Attrs: nounwind sspstrong uwtable
define internal fastcc noundef zeroext i1 @mmap_frag(i64 noundef %real_start, i64 noundef %start, i64 noundef %last, i32 noundef %prot, i32 noundef %flags, i32 noundef %fd, i64 noundef %offset) unnamed_addr #0 {
entry:
  %and = and i32 %flags, 32
  %tobool.not = icmp eq i32 %and, 0
  %0 = and i32 %flags, 47
  %or.cond = icmp ne i32 %0, 1
  %and3 = and i32 %prot, 2
  %tobool4.not = icmp eq i32 %and3, 0
  %or.cond32 = or i1 %tobool4.not, %or.cond
  br i1 %or.cond32, label %if.end, label %if.then

if.then:                                          ; preds = %entry
  %call = tail call ptr @__errno_location() #16
  store i32 22, ptr %call, align 4
  br label %return

if.end:                                           ; preds = %entry
  %1 = load i64, ptr @qemu_host_page_size, align 8
  %add = add i64 %real_start, -1
  %sub = add i64 %add, %1
  %2 = load i64, ptr @guest_base, align 8
  %add.i = add i64 %2, %real_start
  %3 = inttoptr i64 %add.i to ptr
  %cmp643 = icmp ult i64 %real_start, %start
  br i1 %cmp643, label %for.body, label %for.cond10.preheader

for.cond10.preheader:                             ; preds = %for.body, %if.end
  %prot_old.0.lcssa = phi i32 [ 0, %if.end ], [ %or, %for.body ]
  %cmp1146 = icmp ugt i64 %sub, %last
  br i1 %cmp1146, label %for.body12, label %for.end17

for.body:                                         ; preds = %if.end, %for.body
  %a.045 = phi i64 [ %add8, %for.body ], [ %real_start, %if.end ]
  %prot_old.044 = phi i32 [ %or, %for.body ], [ 0, %if.end ]
  %call7 = tail call i32 @page_get_flags(i64 noundef %a.045) #14
  %or = or i32 %call7, %prot_old.044
  %add8 = add i64 %a.045, 4096
  %cmp6 = icmp ult i64 %add8, %start
  br i1 %cmp6, label %for.body, label %for.cond10.preheader, !llvm.loop !11

for.body12:                                       ; preds = %for.cond10.preheader, %for.body12
  %a9.048 = phi i64 [ %sub16, %for.body12 ], [ %sub, %for.cond10.preheader ]
  %prot_old.147 = phi i32 [ %or14, %for.body12 ], [ %prot_old.0.lcssa, %for.cond10.preheader ]
  %call13 = tail call i32 @page_get_flags(i64 noundef %a9.048) #14
  %or14 = or i32 %call13, %prot_old.147
  %sub16 = add i64 %a9.048, -4096
  %cmp11 = icmp ugt i64 %sub16, %last
  br i1 %cmp11, label %for.body12, label %for.end17, !llvm.loop !12

for.end17:                                        ; preds = %for.body12, %for.cond10.preheader
  %prot_old.1.lcssa = phi i32 [ %prot_old.0.lcssa, %for.cond10.preheader ], [ %or14, %for.body12 ]
  %cmp18 = icmp eq i32 %prot_old.1.lcssa, 0
  br i1 %cmp18, label %if.then19, label %for.end17.if.end31_crit_edge

for.end17.if.end31_crit_edge:                     ; preds = %for.end17
  %.pre = and i32 %prot_old.1.lcssa, 3
  %.pre51 = lshr i32 %prot_old.1.lcssa, 2
  %.pre52 = and i32 %.pre51, 1
  %.pre53 = or i32 %.pre52, %.pre
  br label %if.end31

if.then19:                                        ; preds = %for.end17
  %4 = load i64, ptr @qemu_host_page_size, align 8
  %and.i = and i32 %prot, 3
  %and1.i = lshr i32 %prot, 2
  %and1.lobit.i = and i32 %and1.i, 1
  %or.i = or i32 %and1.lobit.i, %and.i
  %or21 = or i32 %flags, 32
  %call22 = tail call ptr @mmap64(ptr noundef %3, i64 noundef %4, i32 noundef %or.i, i32 noundef %or21, i32 noundef -1, i64 noundef 0) #14
  %cmp23.not = icmp eq ptr %call22, %3
  br i1 %cmp23.not, label %if.end31, label %if.then24

if.then24:                                        ; preds = %if.then19
  %cmp25.not = icmp eq ptr %call22, inttoptr (i64 -1 to ptr)
  br i1 %cmp25.not, label %return, label %if.then26

if.then26:                                        ; preds = %if.then24
  %5 = load i64, ptr @qemu_host_page_size, align 8
  %call27 = tail call i32 @munmap(ptr noundef %call22, i64 noundef %5) #14
  %call28 = tail call ptr @__errno_location() #16
  store i32 17, ptr %call28, align 4
  br label %return

if.end31:                                         ; preds = %for.end17.if.end31_crit_edge, %if.then19
  %or.i36.pre-phi = phi i32 [ %.pre53, %for.end17.if.end31_crit_edge ], [ %or.i, %if.then19 ]
  %and.i33.pre-phi = phi i32 [ %.pre, %for.end17.if.end31_crit_edge ], [ %and.i, %if.then19 ]
  %prot_old.2 = phi i32 [ %prot_old.1.lcssa, %for.end17.if.end31_crit_edge ], [ %prot, %if.then19 ]
  %or32 = or i32 %prot_old.2, %prot
  %and.i37 = and i32 %or32, 3
  %and1.i38 = lshr i32 %or32, 2
  %and1.lobit.i39 = and i32 %and1.i38, 1
  %or.i40 = or i32 %and1.lobit.i39, %and.i37
  %tobool36.not = icmp samesign ult i32 %and.i33.pre-phi, 2
  br i1 %tobool36.not, label %if.then37, label %if.end40

if.then37:                                        ; preds = %if.end31
  %or38 = or disjoint i32 %or.i36.pre-phi, 2
  %6 = load i64, ptr @qemu_host_page_size, align 8
  %call39 = tail call i32 @mprotect(ptr noundef %3, i64 noundef %6, i32 noundef %or38) #14
  br label %if.end40

if.end40:                                         ; preds = %if.then37, %if.end31
  %host_prot_old.0 = phi i32 [ %or.i36.pre-phi, %if.end31 ], [ %or38, %if.then37 ]
  %7 = load i64, ptr @guest_base, align 8
  %add.i42 = add i64 %7, %start
  %8 = inttoptr i64 %add.i42 to ptr
  %reass.sub50 = sub i64 %last, %start
  %add49 = add i64 %reass.sub50, 1
  br i1 %tobool.not, label %if.else, label %if.then43

if.then43:                                        ; preds = %if.end40
  tail call void @llvm.memset.p0.i64(ptr align 1 %8, i8 0, i64 %add49, i1 false)
  br label %if.end54

if.else:                                          ; preds = %if.end40
  %call50 = tail call i64 @pread64(i32 noundef %fd, ptr noundef %8, i64 noundef %add49, i64 noundef %offset) #14
  %cmp51 = icmp eq i64 %call50, -1
  br i1 %cmp51, label %return, label %if.end54

if.end54:                                         ; preds = %if.else, %if.then43
  %cmp55.not = icmp eq i32 %or.i40, %host_prot_old.0
  br i1 %cmp55.not, label %return, label %if.then56

if.then56:                                        ; preds = %if.end54
  %9 = load i64, ptr @qemu_host_page_size, align 8
  %call57 = tail call i32 @mprotect(ptr noundef %3, i64 noundef %9, i32 noundef %or.i40) #14
  br label %return

return:                                           ; preds = %if.end54, %if.then56, %if.else, %if.then24, %if.then26, %if.then
  %retval.0 = phi i1 [ false, %if.then ], [ false, %if.then26 ], [ false, %if.then24 ], [ false, %if.else ], [ true, %if.then56 ], [ true, %if.end54 ]
  ret i1 %retval.0
}